; Function Attrs: nounwind uwtable
define hidden noundef i32 @_PyTokenizer_syntaxerror(ptr noundef captures(none) %0, ptr noundef %1, ...) local_unnamed_addr #0 {
  %3 = alloca [1 x %struct.__va_list_tag], align 16
  call void @llvm.lifetime.start.p0(i64 24, ptr nonnull %3) #9
  call void @llvm.va_start.p0(ptr nonnull %3)
  call fastcc void @_syntaxerror_range(ptr noundef %0, ptr noundef %1, i32 noundef -1, i32 noundef -1, ptr noundef %3)
  call void @llvm.va_end.p0(ptr nonnull %3)
  call void @llvm.lifetime.end.p0(i64 24, ptr nonnull %3) #9
  ret i32 64
}